target datalayout = "e-m:e-p270:32:32-p271:32:32-p272:64:64-i64:64-i128:128-f80:128-n8:16:32:64-S128"
target triple = "x86_64-pc-linux-gnu"

; Function Attrs: null_pointer_is_valid sspstrong uwtable
define internal zeroext i1 @dissect_cigi_heur(ptr noundef %0, ptr noundef %1, ptr noundef %2, ptr noundef %3) #0 {
  %5 = alloca i1, align 1
  %6 = alloca ptr, align 8
  %7 = alloca ptr, align 8
  %8 = alloca ptr, align 8
  %9 = alloca ptr, align 8
  store ptr %0, ptr %6, align 8
  store ptr %1, ptr %7, align 8
  store ptr %2, ptr %8, align 8
  store ptr %3, ptr %9, align 8
  %10 = load ptr, ptr %6, align 8
  %11 = call zeroext i1 @packet_is_cigi(ptr noundef %10)
  br i1 %11, label %13, label %12

12:                                               ; preds = %4
  store i1 false, ptr %5, align 1
  br label %17

13:                                               ; preds = %4
  %14 = load ptr, ptr %6, align 8
  %15 = load ptr, ptr %7, align 8
  %16 = load ptr, ptr %8, align 8
  call void @dissect_cigi_pdu(ptr noundef %14, ptr noundef %15, ptr noundef %16)
  store i1 true, ptr %5, align 1
  br label %17

17:                                               ; preds = %13, %12
  %18 = load i1, ptr %5, align 1
  ret i1 %18
}