; Function Attrs: null_pointer_is_valid sspstrong uwtable
define internal noundef zeroext i1 @dissect_cigi_heur(ptr noundef %0, ptr noundef %1, ptr noundef %2, ptr readnone captures(none) %3) #0 {
  %5 = tail call fastcc zeroext i1 @packet_is_cigi(ptr noundef %0)
  br i1 %5, label %6, label %7

6:                                                ; preds = %4
  tail call fastcc void @dissect_cigi_pdu(ptr noundef %0, ptr noundef %1, ptr noundef %2)
  br label %7

7:                                                ; preds = %4, %6
  ret i1 %5
}